target datalayout = "e-m:e-p270:32:32-p271:32:32-p272:64:64-i64:64-i128:128-f80:128-n8:16:32:64-S128"
target triple = "x86_64-pc-linux-gnu"

@.str = private unnamed_addr constant [28 x i8] c"../openssl/test/rand_test.c\00", align 1
@test_rand_random_provider.data = internal constant [11 x i8] c"\00\01\02\03\04\05\06\07\08\09\0A", align 1
@.str.42 = private unnamed_addr constant [50 x i8] c"OSSL_PROVIDER_add_builtin(ctx, \22r_prov\22, &r_init)\00", align 1
@.str.43 = private unnamed_addr constant [7 x i8] c"r_prov\00", align 1
@.str.44 = private unnamed_addr constant [48 x i8] c"prov = OSSL_PROVIDER_try_load(ctx, \22r_prov\22, 1)\00", align 1
@.str.45 = private unnamed_addr constant [37 x i8] c"RAND_set1_random_provider(ctx, prov)\00", align 1
@.str.46 = private unnamed_addr constant [4 x i8] c"buf\00", align 1
@.str.47 = private unnamed_addr constant [5 x i8] c"data\00", align 1
@.str.48 = private unnamed_addr constant [8 x i8] c"privbuf\00", align 1
@.str.49 = private unnamed_addr constant [37 x i8] c"RAND_set1_random_provider(ctx, NULL)\00", align 1

; Function Attrs: nounwind uwtable
define internal i32 @test_rand_random_provider() #0 {
  %1 = alloca ptr, align 8
  %2 = alloca ptr, align 8
  %3 = alloca i32, align 4
  %4 = alloca [11 x i8], align 1
  %5 = alloca [11 x i8], align 1
  call void @llvm.lifetime.start.p0(i64 8, ptr %1) #8
  store ptr null, ptr %1, align 8, !tbaa !21
  call void @llvm.lifetime.start.p0(i64 8, ptr %2) #8
  store ptr null, ptr %2, align 8, !tbaa !19
  call void @llvm.lifetime.start.p0(i64 4, ptr %3) #8
  store i32 0, ptr %3, align 4, !tbaa !9
  call void @llvm.lifetime.start.p0(i64 11, ptr %4) #8
  call void @llvm.lifetime.start.p0(i64 11, ptr %5) #8
  %6 = getelementptr inbounds [11 x i8], ptr %4, i64 0, i64 0
  call void @llvm.memset.p0.i64(ptr align 1 %6, i8 -1, i64 11, i1 false)
  %7 = getelementptr inbounds [11 x i8], ptr %5, i64 0, i64 0
  call void @llvm.memset.p0.i64(ptr align 1 %7, i8 -1, i64 11, i1 false)
  %8 = call i32 @test_get_libctx(ptr noundef %1, ptr noundef null, ptr noundef null, ptr noundef null, ptr noundef null)
  %9 = icmp ne i32 %8, 0
  br i1 %9, label %10, label %48

10:                                               ; preds = %0
  %11 = load ptr, ptr %1, align 8, !tbaa !21
  %12 = call i32 @OSSL_PROVIDER_add_builtin(ptr noundef %11, ptr noundef @.str.43, ptr noundef @r_init)
  %13 = icmp ne i32 %12, 0
  %14 = zext i1 %13 to i32
  %15 = call i32 @test_true(ptr noundef @.str, i32 noundef 219, ptr noundef @.str.42, i32 noundef %14)
  %16 = icmp ne i32 %15, 0
  br i1 %16, label %17, label %48

17:                                               ; preds = %10
  %18 = load ptr, ptr %1, align 8, !tbaa !21
  %19 = call ptr @OSSL_PROVIDER_try_load(ptr noundef %18, ptr noundef @.str.43, i32 noundef 1)
  store ptr %19, ptr %2, align 8, !tbaa !19
  %20 = call i32 @test_ptr(ptr noundef @.str, i32 noundef 220, ptr noundef @.str.44, ptr noundef %19)
  %21 = icmp ne i32 %20, 0
  br i1 %21, label %22, label %48

22:                                               ; preds = %17
  %23 = load ptr, ptr %1, align 8, !tbaa !21
  %24 = load ptr, ptr %2, align 8, !tbaa !19
  %25 = call i32 @RAND_set1_random_provider(ptr noundef %23, ptr noundef %24)
  %26 = icmp ne i32 %25, 0
  %27 = zext i1 %26 to i32
  %28 = call i32 @test_true(ptr noundef @.str, i32 noundef 221, ptr noundef @.str.45, i32 noundef %27)
  %29 = icmp ne i32 %28, 0
  br i1 %29, label %30, label %48

30:                                               ; preds = %22
  %31 = load ptr, ptr %1, align 8, !tbaa !21
  %32 = getelementptr inbounds [11 x i8], ptr %4, i64 0, i64 0
  %33 = call i32 @RAND_bytes_ex(ptr noundef %31, ptr noundef %32, i64 noundef 11, i32 noundef 256)
  %34 = icmp ne i32 %33, 0
  br i1 %34, label %35, label %48

35:                                               ; preds = %30
  %36 = getelementptr inbounds [11 x i8], ptr %4, i64 0, i64 0
  %37 = call i32 @test_mem_eq(ptr noundef @.str, i32 noundef 223, ptr noundef @.str.46, ptr noundef @.str.47, ptr noundef %36, i64 noundef 11, ptr noundef @test_rand_random_provider.data, i64 noundef 11)
  %38 = icmp ne i32 %37, 0
  br i1 %38, label %39, label %48

39:                                               ; preds = %35
  %40 = load ptr, ptr %1, align 8, !tbaa !21
  %41 = getelementptr inbounds [11 x i8], ptr %5, i64 0, i64 0
  %42 = call i32 @RAND_priv_bytes_ex(ptr noundef %40, ptr noundef %41, i64 noundef 11, i32 noundef 256)
  %43 = icmp ne i32 %42, 0
  br i1 %43, label %44, label %48

44:                                               ; preds = %39
  %45 = getelementptr inbounds [11 x i8], ptr %5, i64 0, i64 0
  %46 = call i32 @test_mem_eq(ptr noundef @.str, i32 noundef 225, ptr noundef @.str.48, ptr noundef @.str.47, ptr noundef %45, i64 noundef 11, ptr noundef @test_rand_random_provider.data, i64 noundef 11)
  %47 = icmp ne i32 %46, 0
  br i1 %47, label %49, label %48

48:                                               ; preds = %44, %39, %35, %30, %22, %17, %10, %0
  br label %85

49:                                               ; preds = %44
  %50 = load ptr, ptr %1, align 8, !tbaa !21
  %51 = call i32 @RAND_set1_random_provider(ptr noundef %50, ptr noundef null)
  %52 = icmp ne i32 %51, 0
  %53 = zext i1 %52 to i32
  %54 = call i32 @test_true(ptr noundef @.str, i32 noundef 229, ptr noundef @.str.49, i32 noundef %53)
  %55 = icmp ne i32 %54, 0
  br i1 %55, label %56, label %65

56:                                               ; preds = %49
  %57 = load ptr, ptr %1, align 8, !tbaa !21
  %58 = getelementptr inbounds [11 x i8], ptr %4, i64 0, i64 0
  %59 = call i32 @RAND_bytes_ex(ptr noundef %57, ptr noundef %58, i64 noundef 11, i32 noundef 256)
  %60 = icmp ne i32 %59, 0
  br i1 %60, label %61, label %65

61:                                               ; preds = %56
  %62 = getelementptr inbounds [11 x i8], ptr %4, i64 0, i64 0
  %63 = call i32 @test_mem_ne(ptr noundef @.str, i32 noundef 231, ptr noundef @.str.46, ptr noundef @.str.47, ptr noundef %62, i64 noundef 11, ptr noundef @test_rand_random_provider.data, i64 noundef 11)
  %64 = icmp ne i32 %63, 0
  br i1 %64, label %66, label %65

65:                                               ; preds = %61, %56, %49
  br label %85

66:                                               ; preds = %61
  %67 = load ptr, ptr %1, align 8, !tbaa !21
  %68 = load ptr, ptr %2, align 8, !tbaa !19
  %69 = call i32 @RAND_set1_random_provider(ptr noundef %67, ptr noundef %68)
  %70 = icmp ne i32 %69, 0
  %71 = zext i1 %70 to i32
  %72 = call i32 @test_true(ptr noundef @.str, i32 noundef 235, ptr noundef @.str.45, i32 noundef %71)
  %73 = icmp ne i32 %72, 0
  br i1 %73, label %74, label %83

74:                                               ; preds = %66
  %75 = load ptr, ptr %1, align 8, !tbaa !21
  %76 = getelementptr inbounds [11 x i8], ptr %4, i64 0, i64 0
  %77 = call i32 @RAND_bytes_ex(ptr noundef %75, ptr noundef %76, i64 noundef 11, i32 noundef 256)
  %78 = icmp ne i32 %77, 0
  br i1 %78, label %79, label %83

79:                                               ; preds = %74
  %80 = getelementptr inbounds [11 x i8], ptr %4, i64 0, i64 0
  %81 = call i32 @test_mem_eq(ptr noundef @.str, i32 noundef 237, ptr noundef @.str.46, ptr noundef @.str.47, ptr noundef %80, i64 noundef 11, ptr noundef @test_rand_random_provider.data, i64 noundef 11)
  %82 = icmp ne i32 %81, 0
  br i1 %82, label %84, label %83

83:                                               ; preds = %79, %74, %66
  br label %85

84:                                               ; preds = %79
  store i32 1, ptr %3, align 4, !tbaa !9
  br label %85

85:                                               ; preds = %84, %83, %65, %48
  %86 = load ptr, ptr %2, align 8, !tbaa !19
  %87 = call i32 @OSSL_PROVIDER_unload(ptr noundef %86)
  %88 = load ptr, ptr %1, align 8, !tbaa !21
  call void @OSSL_LIB_CTX_free(ptr noundef %88)
  %89 = load i32, ptr %3, align 4, !tbaa !9
  call void @llvm.lifetime.end.p0(i64 11, ptr %5) #8
  call void @llvm.lifetime.end.p0(i64 11, ptr %4) #8
  call void @llvm.lifetime.end.p0(i64 4, ptr %3) #8
  call void @llvm.lifetime.end.p0(i64 8, ptr %2) #8
  call void @llvm.lifetime.end.p0(i64 8, ptr %1) #8
  ret i32 %89
}