; Function Attrs: nounwind uwtable
define internal range(i32 0, 2) i32 @test_rand_random_provider() #0 {
  %1 = alloca ptr, align 8
  %2 = alloca [11 x i8], align 1
  %3 = alloca [11 x i8], align 1
  call void @llvm.lifetime.start.p0(i64 8, ptr nonnull %1) #11
  store ptr null, ptr %1, align 8, !tbaa !17
  call void @llvm.lifetime.start.p0(i64 11, ptr nonnull %2) #11
  call void @llvm.lifetime.start.p0(i64 11, ptr nonnull %3) #11
  call void @llvm.memset.p0.i64(ptr noundef nonnull align 1 dereferenceable(11) %2, i8 -1, i64 11, i1 false)
  call void @llvm.memset.p0.i64(ptr noundef nonnull align 1 dereferenceable(11) %3, i8 -1, i64 11, i1 false)
  %4 = call i32 @test_get_libctx(ptr noundef nonnull %1, ptr noundef null, ptr noundef null, ptr noundef null, ptr noundef null) #11
  %.not = icmp eq i32 %4, 0
  br i1 %.not, label %53, label %5

5:                                                ; preds = %0
  %6 = load ptr, ptr %1, align 8, !tbaa !17
  %7 = call i32 @OSSL_PROVIDER_add_builtin(ptr noundef %6, ptr noundef nonnull @.str.43, ptr noundef nonnull @r_init) #11
  %8 = icmp ne i32 %7, 0
  %9 = zext i1 %8 to i32
  %10 = call i32 @test_true(ptr noundef nonnull @.str, i32 noundef 219, ptr noundef nonnull @.str.42, i32 noundef %9) #11
  %.not4 = icmp eq i32 %10, 0
  br i1 %.not4, label %53, label %11

11:                                               ; preds = %5
  %12 = load ptr, ptr %1, align 8, !tbaa !17
  %13 = call ptr @OSSL_PROVIDER_try_load(ptr noundef %12, ptr noundef nonnull @.str.43, i32 noundef 1) #11
  %14 = call i32 @test_ptr(ptr noundef nonnull @.str, i32 noundef 220, ptr noundef nonnull @.str.44, ptr noundef %13) #11
  %.not5 = icmp eq i32 %14, 0
  br i1 %.not5, label %53, label %15

15:                                               ; preds = %11
  %16 = load ptr, ptr %1, align 8, !tbaa !17
  %17 = call i32 @RAND_set1_random_provider(ptr noundef %16, ptr noundef %13) #11
  %18 = icmp ne i32 %17, 0
  %19 = zext i1 %18 to i32
  %20 = call i32 @test_true(ptr noundef nonnull @.str, i32 noundef 221, ptr noundef nonnull @.str.45, i32 noundef %19) #11
  %.not6 = icmp eq i32 %20, 0
  br i1 %.not6, label %53, label %21

21:                                               ; preds = %15
  %22 = load ptr, ptr %1, align 8, !tbaa !17
  %23 = call i32 @RAND_bytes_ex(ptr noundef %22, ptr noundef nonnull %2, i64 noundef 11, i32 noundef 256) #11
  %.not7 = icmp eq i32 %23, 0
  br i1 %.not7, label %53, label %24

24:                                               ; preds = %21
  %25 = call i32 @test_mem_eq(ptr noundef nonnull @.str, i32 noundef 223, ptr noundef nonnull @.str.46, ptr noundef nonnull @.str.47, ptr noundef nonnull %2, i64 noundef 11, ptr noundef nonnull @test_rand_random_provider.data, i64 noundef 11) #11
  %.not8 = icmp eq i32 %25, 0
  br i1 %.not8, label %53, label %26

26:                                               ; preds = %24
  %27 = load ptr, ptr %1, align 8, !tbaa !17
  %28 = call i32 @RAND_priv_bytes_ex(ptr noundef %27, ptr noundef nonnull %3, i64 noundef 11, i32 noundef 256) #11
  %.not9 = icmp eq i32 %28, 0
  br i1 %.not9, label %53, label %29

29:                                               ; preds = %26
  %30 = call i32 @test_mem_eq(ptr noundef nonnull @.str, i32 noundef 225, ptr noundef nonnull @.str.48, ptr noundef nonnull @.str.47, ptr noundef nonnull %3, i64 noundef 11, ptr noundef nonnull @test_rand_random_provider.data, i64 noundef 11) #11
  %.not10 = icmp eq i32 %30, 0
  br i1 %.not10, label %53, label %31

31:                                               ; preds = %29
  %32 = load ptr, ptr %1, align 8, !tbaa !17
  %33 = call i32 @RAND_set1_random_provider(ptr noundef %32, ptr noundef null) #11
  %34 = icmp ne i32 %33, 0
  %35 = zext i1 %34 to i32
  %36 = call i32 @test_true(ptr noundef nonnull @.str, i32 noundef 229, ptr noundef nonnull @.str.49, i32 noundef %35) #11
  %.not11 = icmp eq i32 %36, 0
  br i1 %.not11, label %53, label %37

37:                                               ; preds = %31
  %38 = load ptr, ptr %1, align 8, !tbaa !17
  %39 = call i32 @RAND_bytes_ex(ptr noundef %38, ptr noundef nonnull %2, i64 noundef 11, i32 noundef 256) #11
  %.not12 = icmp eq i32 %39, 0
  br i1 %.not12, label %53, label %40

40:                                               ; preds = %37
  %41 = call i32 @test_mem_ne(ptr noundef nonnull @.str, i32 noundef 231, ptr noundef nonnull @.str.46, ptr noundef nonnull @.str.47, ptr noundef nonnull %2, i64 noundef 11, ptr noundef nonnull @test_rand_random_provider.data, i64 noundef 11) #11
  %.not13 = icmp eq i32 %41, 0
  br i1 %.not13, label %53, label %42

42:                                               ; preds = %40
  %43 = load ptr, ptr %1, align 8, !tbaa !17
  %44 = call i32 @RAND_set1_random_provider(ptr noundef %43, ptr noundef %13) #11
  %45 = icmp ne i32 %44, 0
  %46 = zext i1 %45 to i32
  %47 = call i32 @test_true(ptr noundef nonnull @.str, i32 noundef 235, ptr noundef nonnull @.str.45, i32 noundef %46) #11
  %.not14 = icmp eq i32 %47, 0
  br i1 %.not14, label %53, label %48

48:                                               ; preds = %42
  %49 = load ptr, ptr %1, align 8, !tbaa !17
  %50 = call i32 @RAND_bytes_ex(ptr noundef %49, ptr noundef nonnull %2, i64 noundef 11, i32 noundef 256) #11
  %.not15 = icmp eq i32 %50, 0
  br i1 %.not15, label %53, label %51

51:                                               ; preds = %48
  %52 = call i32 @test_mem_eq(ptr noundef nonnull @.str, i32 noundef 237, ptr noundef nonnull @.str.46, ptr noundef nonnull @.str.47, ptr noundef nonnull %2, i64 noundef 11, ptr noundef nonnull @test_rand_random_provider.data, i64 noundef 11) #11
  %.not16 = icmp ne i32 %52, 0
  %spec.select = zext i1 %.not16 to i32
  br label %53

53:                                               ; preds = %51, %42, %48, %31, %37, %40, %0, %5, %11, %15, %21, %24, %26, %29
  %.03 = phi ptr [ %13, %48 ], [ %13, %42 ], [ %13, %40 ], [ %13, %37 ], [ %13, %31 ], [ %13, %29 ], [ %13, %26 ], [ %13, %24 ], [ %13, %21 ], [ %13, %15 ], [ %13, %11 ], [ null, %5 ], [ null, %0 ], [ %13, %51 ]
  %.0 = phi i32 [ 0, %48 ], [ 0, %42 ], [ 0, %40 ], [ 0, %37 ], [ 0, %31 ], [ 0, %29 ], [ 0, %26 ], [ 0, %24 ], [ 0, %21 ], [ 0, %15 ], [ 0, %11 ], [ 0, %5 ], [ 0, %0 ], [ %spec.select, %51 ]
  %54 = call i32 @OSSL_PROVIDER_unload(ptr noundef %.03) #11
  %55 = load ptr, ptr %1, align 8, !tbaa !17
  call void @OSSL_LIB_CTX_free(ptr noundef %55) #11
  call void @llvm.lifetime.end.p0(i64 11, ptr nonnull %3) #11
  call void @llvm.lifetime.end.p0(i64 11, ptr nonnull %2) #11
  call void @llvm.lifetime.end.p0(i64 8, ptr nonnull %1) #11
  ret i32 %.0
}